target datalayout = "e-m:e-p270:32:32-p271:32:32-p272:64:64-i64:64-i128:128-f80:128-n8:16:32:64-S128"
target triple = "x86_64-pc-linux-gnu"

%struct._GLFWwindow = type { ptr, i32, i32, i32, i32, i32, i32, i32, ptr, i32, %struct.GLFWvidmode, ptr, ptr, ptr, i32, i32, i32, i32, i32, i32, i32, i32, i32, i32, [8 x i8], [349 x i8], double, double, i32, %struct._GLFWcontext, %struct.anon.6, %struct._GLFWwindowWayland, %struct._GLFWwindowX11, %struct._GLFWwindowNull }
%struct.GLFWvidmode = type { i32, i32, i32, i32, i32, i32 }
%struct._GLFWcontext = type { i32, i32, i32, i32, i32, i32, i32, i32, i32, i32, i32, ptr, ptr, ptr, ptr, ptr, ptr, ptr, ptr, ptr, %struct.anon.4, %struct.anon.5, %struct._GLFWcontextGLX }
%struct.anon.4 = type { ptr, ptr, ptr, ptr }
%struct.anon.5 = type { ptr, i32, i32, ptr }
%struct._GLFWcontextGLX = type { ptr, i64 }
%struct.anon.6 = type { ptr, ptr, ptr, ptr, ptr, ptr, ptr, ptr, ptr, ptr, ptr, ptr, ptr, ptr, ptr, ptr, ptr }
%struct._GLFWwindowWayland = type { i32, i32, i32, i32, i32, i32, i32, i32, i32, i32, i32, ptr, ptr, %struct.anon.7, %struct.anon.8, %struct.anon.9, %struct.anon.10, ptr, double, double, ptr, i32, ptr, i64, i64, ptr, i32, ptr, ptr, ptr, ptr, ptr, ptr, %struct.anon.11 }
%struct.anon.7 = type { ptr }
%struct.anon.8 = type { i32, i32, i32, i32, i32, i32 }
%struct.anon.9 = type { ptr, ptr, ptr, i32 }
%struct.anon.10 = type { ptr }
%struct.anon.11 = type { i32, ptr, %struct._GLFWfallbackEdgeWayland, %struct._GLFWfallbackEdgeWayland, %struct._GLFWfallbackEdgeWayland, %struct._GLFWfallbackEdgeWayland, ptr }
%struct._GLFWfallbackEdgeWayland = type { ptr, ptr, ptr }
%struct._GLFWwindowX11 = type { i64, i64, i64, ptr, i32, i32, i32, i32, i32, i32, i32, i32, i32, i32, i32, i32, [256 x i64] }
%struct._GLFWwindowNull = type { i32, i32, i32, i32, i32, i32, i32, i32, i32, i32, i32, float }

; Function Attrs: nounwind uwtable
define hidden void @_glfwSetWindowSizeNull(ptr noundef %0, i32 noundef %1, i32 noundef %2) #0 {
  %4 = alloca ptr, align 8
  %5 = alloca i32, align 4
  %6 = alloca i32, align 4
  store ptr %0, ptr %4, align 8, !tbaa !3
  store i32 %1, ptr %5, align 4, !tbaa !88
  store i32 %2, ptr %6, align 4, !tbaa !88
  %7 = load ptr, ptr %4, align 8, !tbaa !3
  %8 = getelementptr inbounds nuw %struct._GLFWwindow, ptr %7, i32 0, i32 11
  %9 = load ptr, ptr %8, align 8, !tbaa !25
  %10 = icmp ne ptr %9, null
  br i1 %10, label %11, label %12

11:                                               ; preds = %3
  br label %42

12:                                               ; preds = %3
  %13 = load ptr, ptr %4, align 8, !tbaa !3
  %14 = getelementptr inbounds nuw %struct._GLFWwindow, ptr %13, i32 0, i32 33
  %15 = getelementptr inbounds nuw %struct._GLFWwindowNull, ptr %14, i32 0, i32 2
  %16 = load i32, ptr %15, align 8, !tbaa !74
  %17 = load i32, ptr %5, align 4, !tbaa !88
  %18 = icmp ne i32 %16, %17
  br i1 %18, label %26, label %19

19:                                               ; preds = %12
  %20 = load ptr, ptr %4, align 8, !tbaa !3
  %21 = getelementptr inbounds nuw %struct._GLFWwindow, ptr %20, i32 0, i32 33
  %22 = getelementptr inbounds nuw %struct._GLFWwindowNull, ptr %21, i32 0, i32 3
  %23 = load i32, ptr %22, align 4, !tbaa !76
  %24 = load i32, ptr %6, align 4, !tbaa !88
  %25 = icmp ne i32 %23, %24
  br i1 %25, label %26, label %42

26:                                               ; preds = %19, %12
  %27 = load i32, ptr %5, align 4, !tbaa !88
  %28 = load ptr, ptr %4, align 8, !tbaa !3
  %29 = getelementptr inbounds nuw %struct._GLFWwindow, ptr %28, i32 0, i32 33
  %30 = getelementptr inbounds nuw %struct._GLFWwindowNull, ptr %29, i32 0, i32 2
  store i32 %27, ptr %30, align 8, !tbaa !74
  %31 = load i32, ptr %6, align 4, !tbaa !88
  %32 = load ptr, ptr %4, align 8, !tbaa !3
  %33 = getelementptr inbounds nuw %struct._GLFWwindow, ptr %32, i32 0, i32 33
  %34 = getelementptr inbounds nuw %struct._GLFWwindowNull, ptr %33, i32 0, i32 3
  store i32 %31, ptr %34, align 4, !tbaa !76
  %35 = load ptr, ptr %4, align 8, !tbaa !3
  %36 = load i32, ptr %5, align 4, !tbaa !88
  %37 = load i32, ptr %6, align 4, !tbaa !88
  call void @_glfwInputFramebufferSize(ptr noundef %35, i32 noundef %36, i32 noundef %37)
  %38 = load ptr, ptr %4, align 8, !tbaa !3
  call void @_glfwInputWindowDamage(ptr noundef %38)
  %39 = load ptr, ptr %4, align 8, !tbaa !3
  %40 = load i32, ptr %5, align 4, !tbaa !88
  %41 = load i32, ptr %6, align 4, !tbaa !88
  call void @_glfwInputWindowSize(ptr noundef %39, i32 noundef %40, i32 noundef %41)
  br label %42

42:                                               ; preds = %11, %26, %19
  ret void
}